; ModuleID = 'source-C-CXX/30/257.c'
source_filename = "source-C-CXX/30/257.c"
target datalayout = "e-m:e-p270:32:32-p271:32:32-p272:64:64-i64:64-f80:128-n8:16:32:64-S128"
target triple = "x86_64-pc-linux-gnu"

; Function Attrs: nounwind sspstrong uwtable
define dso_local i32 @main() local_unnamed_addr #0 {
  %1 = alloca [3000 x [50 x i8]], align 16
  %2 = getelementptr inbounds [3000 x [50 x i8]], [3000 x [50 x i8]]* %1, i64 0, i64 0, i64 0
  call void @llvm.lifetime.start.p0i8(i64 150000, i8* nonnull %2) #4
  br label %3

3:                                                ; preds = %3, %0
  %4 = phi i64 [ %5, %3 ], [ -1, %0 ]
  %5 = add i64 %4, 1
  %6 = getelementptr inbounds [3000 x [50 x i8]], [3000 x [50 x i8]]* %1, i64 0, i64 %5, i64 0
  %7 = call i32 (i8*, ...) bitcast (i32 (...)* @gets to i32 (i8*, ...)*)(i8* nonnull %6) #4
  %8 = load i8, i8* %6, align 2, !tbaa !5
  %9 = icmp eq i8 %8, 101
  br i1 %9, label %10, label %3, !llvm.loop !8

10:                                               ; preds = %3
  %11 = trunc i64 %4 to i32
  %12 = icmp sgt i32 %11, -1
  br i1 %12, label %13, label %21

13:                                               ; preds = %10
  %14 = and i64 %4, 4294967295
  br label %15

15:                                               ; preds = %13, %15
  %16 = phi i64 [ %14, %13 ], [ %20, %15 ]
  %17 = getelementptr inbounds [3000 x [50 x i8]], [3000 x [50 x i8]]* %1, i64 0, i64 %16, i64 0
  %18 = call i32 @puts(i8* nonnull %17)
  %19 = icmp sgt i64 %16, 0
  %20 = add nsw i64 %16, -1
  br i1 %19, label %15, label %21, !llvm.loop !10

21:                                               ; preds = %15, %10
  call void @llvm.lifetime.end.p0i8(i64 150000, i8* nonnull %2) #4
  ret i32 0
}

; Function Attrs: argmemonly mustprogress nofree nosync nounwind willreturn
declare void @llvm.lifetime.start.p0i8(i64 immarg, i8* nocapture) #1

declare i32 @gets(...) local_unnamed_addr #2

; Function Attrs: nofree nounwind
declare noundef i32 @puts(i8* nocapture noundef readonly) local_unnamed_addr #3

; Function Attrs: argmemonly mustprogress nofree nosync nounwind willreturn
declare void @llvm.lifetime.end.p0i8(i64 immarg, i8* nocapture) #1


!llvm.module.flags = !{!0, !1, !2, !3}
!llvm.ident = !{!4}

!0 = !{i32 1, !"wchar_size", i32 4}
!1 = !{i32 7, !"PIC Level", i32 2}
!2 = !{i32 7, !"PIE Level", i32 2}
!3 = !{i32 7, !"uwtable", i32 1}
!4 = !{!"clang version 13.0.0"}
!5 = !{!6, !6, i64 0}
!6 = !{!"omnipotent char", !7, i64 0}
!7 = !{!"Simple C/C++ TBAA"}
!8 = distinct !{!8, !9}
!9 = !{!"llvm.loop.mustprogress"}
!10 = distinct !{!10, !9}
